target datalayout = "e-m:e-p270:32:32-p271:32:32-p272:64:64-i64:64-i128:128-f80:128-n8:16:32:64-S128"
target triple = "x86_64-pc-linux-gnu"

; Function Attrs: nounwind sspstrong uwtable
define internal i64 @enum_to_a(i32 noundef %0, ptr noundef %1, i64 noundef %2) #0 {
  %4 = alloca i32, align 4
  %5 = alloca ptr, align 8
  %6 = alloca i64, align 8
  %7 = alloca i64, align 8
  store i32 %0, ptr %4, align 4, !tbaa !7
  store ptr %1, ptr %5, align 8, !tbaa !11
  store i64 %2, ptr %6, align 8, !tbaa !14
  call void @llvm.lifetime.start.p0(i64 8, ptr %7) #22
  %8 = call i64 @rb_ary_new()
  store i64 %8, ptr %7, align 8, !tbaa !14
  %9 = load i64, ptr %6, align 8, !tbaa !14
  %10 = load i32, ptr %4, align 4, !tbaa !7
  %11 = load ptr, ptr %5, align 8, !tbaa !11
  %12 = load i64, ptr %7, align 8, !tbaa !14
  %13 = call i32 @rb_keyword_given_p()
  %14 = icmp ne i32 %13, 0
  %15 = xor i1 %14, true
  %16 = xor i1 %15, true
  %17 = zext i1 %16 to i32
  %18 = call i64 @rb_block_call_kw(i64 noundef %9, i64 noundef 3073, i32 noundef %10, ptr noundef %11, ptr noundef @collect_all, i64 noundef %12, i32 noundef %17)
  %19 = load i64, ptr %7, align 8, !tbaa !14
  call void @llvm.lifetime.end.p0(i64 8, ptr %7) #22
  ret i64 %19
}

; Function Attrs: nounwind sspstrong uwtable
define internal i64 @enum_sort(i64 noundef %0) #0 {
  %2 = alloca i64, align 8
  store i64 %0, ptr %2, align 8, !tbaa !14
  %3 = load i64, ptr %2, align 8, !tbaa !14
  %4 = call i64 @enum_to_a(i32 noundef 0, ptr noundef null, i64 noundef %3)
  %5 = call i64 @rb_ary_sort_bang(i64 noundef %4)
  ret i64 %5
}