; Function Attrs: nounwind sspstrong uwtable
define internal i64 @enum_sort(i64 noundef %0) #0 {
  %2 = tail call i64 @rb_ary_new() #14
  %3 = tail call i32 @rb_keyword_given_p() #14
  %4 = icmp ne i32 %3, 0
  %5 = zext i1 %4 to i32
  %6 = tail call i64 @rb_block_call_kw(i64 noundef %0, i64 noundef 3073, i32 noundef 0, ptr noundef null, ptr noundef nonnull @collect_all, i64 noundef %2, i32 noundef %5) #14
  %7 = tail call i64 @rb_ary_sort_bang(i64 noundef %2) #14
  ret i64 %7
}